; Function Attrs: mustprogress uwtable
define noundef double @_ZNK8QuantLib28HybridHestonHullWhiteProcess4timeERKNS_4DateE(ptr nocapture noundef nonnull readonly align 8 dereferenceable(216) %this, ptr noundef nonnull align 8 dereferenceable(8) %date) unnamed_addr #6 align 2 {
entry:
  %hestonProcess_ = getelementptr inbounds nuw i8, ptr %this, i64 128
  %0 = load ptr, ptr %hestonProcess_, align 8, !tbaa !39
  %cmp.not.i = icmp eq ptr %0, null
  br i1 %cmp.not.i, label %cond.false.i, label %_ZNK5boost10shared_ptrIN8QuantLib13HestonProcessEEptEv.exit, !prof !43

cond.false.i:                                     ; preds = %entry
  tail call void @_ZN5boost16assertion_failedEPKcS1_S1_l(ptr noundef nonnull @.str.13, ptr noundef nonnull @__PRETTY_FUNCTION__._ZNK5boost10shared_ptrIN8QuantLib13HestonProcessEEptEv, ptr noundef nonnull @.str.14, i64 noundef 784)
  %.pre.i = load ptr, ptr %hestonProcess_, align 8, !tbaa !39
  br label %_ZNK5boost10shared_ptrIN8QuantLib13HestonProcessEEptEv.exit

_ZNK5boost10shared_ptrIN8QuantLib13HestonProcessEEptEv.exit: ; preds = %entry, %cond.false.i
  %1 = phi ptr [ %0, %entry ], [ %.pre.i, %cond.false.i ]
  %vtable = load ptr, ptr %1, align 8, !tbaa !35
  %vfn = getelementptr inbounds i8, ptr %vtable, i64 112
  %2 = load ptr, ptr %vfn, align 8
  %call2 = tail call noundef double %2(ptr noundef nonnull align 8 dereferenceable(220) %1, ptr noundef nonnull align 8 dereferenceable(8) %date)
  ret double %call2
}